#include <math.h>
#include <stdio.h>
#include <stdlib.h>
#include <string.h>

int main()
{
	int m,n;
	scanf("%d %d",&n,&m);
	int u[100],i;
	for(i=0;i<=n-2;i++)
	{
		scanf("%d ",&u[i]);
	}
	scanf("%d",&u[n-1]);
	int *p;
	p=u+n-m;
	int k=0;
	while(k<n-1)
	{
		printf("%d ",*p);
		p++;
		p=(p-u)%n+u;
		k++;
	}

printf("%d",*p);
	return 0;
}

